target datalayout = "e-m:e-p270:32:32-p271:32:32-p272:64:64-i64:64-i128:128-f80:128-n8:16:32:64-S128"
target triple = "x86_64-pc-linux-gnu"

; Function Attrs: inlinehint nounwind uwtable
define internal i32 @opj_int_fix_mul(i32 noundef %0, i32 noundef %1) #6 {
  %3 = alloca i32, align 4
  %4 = alloca i32, align 4
  %5 = alloca i64, align 8
  store i32 %0, ptr %3, align 4, !tbaa !13
  store i32 %1, ptr %4, align 4, !tbaa !13
  call void @llvm.lifetime.start.p0(i64 8, ptr %5) #9
  %6 = load i32, ptr %3, align 4, !tbaa !13
  %7 = sext i32 %6 to i64
  %8 = load i32, ptr %4, align 4, !tbaa !13
  %9 = sext i32 %8 to i64
  %10 = mul nsw i64 %7, %9
  store i64 %10, ptr %5, align 8, !tbaa !8
  %11 = load i64, ptr %5, align 8, !tbaa !8
  %12 = add nsw i64 %11, 4096
  store i64 %12, ptr %5, align 8, !tbaa !8
  %13 = load i64, ptr %5, align 8, !tbaa !8
  %14 = ashr i64 %13, 13
  %15 = trunc i64 %14 to i32
  call void @llvm.lifetime.end.p0(i64 8, ptr %5) #9
  ret i32 %15
}

; Function Attrs: nounwind uwtable
define hidden i32 @opj_mct_encode_custom(ptr noundef %0, i64 noundef %1, ptr noundef %2, i32 noundef %3, i32 noundef %4) #0 {
  %6 = alloca i32, align 4
  %7 = alloca ptr, align 8
  %8 = alloca i64, align 8
  %9 = alloca ptr, align 8
  %10 = alloca i32, align 4
  %11 = alloca i32, align 4
  %12 = alloca ptr, align 8
  %13 = alloca i64, align 8
  %14 = alloca i32, align 4
  %15 = alloca i32, align 4
  %16 = alloca i32, align 4
  %17 = alloca ptr, align 8
  %18 = alloca ptr, align 8
  %19 = alloca ptr, align 8
  %20 = alloca i32, align 4
  %21 = alloca ptr, align 8
  %22 = alloca i32, align 4
  store ptr %0, ptr %7, align 8, !tbaa !29
  store i64 %1, ptr %8, align 8, !tbaa !8
  store ptr %2, ptr %9, align 8, !tbaa !31
  store i32 %3, ptr %10, align 4, !tbaa !13
  store i32 %4, ptr %11, align 4, !tbaa !13
  call void @llvm.lifetime.start.p0(i64 8, ptr %12) #9
  %23 = load ptr, ptr %7, align 8, !tbaa !29
  store ptr %23, ptr %12, align 8, !tbaa !21
  call void @llvm.lifetime.start.p0(i64 8, ptr %13) #9
  call void @llvm.lifetime.start.p0(i64 4, ptr %14) #9
  call void @llvm.lifetime.start.p0(i64 4, ptr %15) #9
  call void @llvm.lifetime.start.p0(i64 4, ptr %16) #9
  %24 = load i32, ptr %10, align 4, !tbaa !13
  %25 = load i32, ptr %10, align 4, !tbaa !13
  %26 = mul i32 %24, %25
  store i32 %26, ptr %16, align 4, !tbaa !13
  call void @llvm.lifetime.start.p0(i64 8, ptr %17) #9
  store ptr null, ptr %17, align 8, !tbaa !3
  call void @llvm.lifetime.start.p0(i64 8, ptr %18) #9
  store ptr null, ptr %18, align 8, !tbaa !3
  call void @llvm.lifetime.start.p0(i64 8, ptr %19) #9
  %27 = load ptr, ptr %9, align 8, !tbaa !31
  store ptr %27, ptr %19, align 8, !tbaa !34
  call void @llvm.lifetime.start.p0(i64 4, ptr %20) #9
  store i32 8192, ptr %20, align 4, !tbaa !13
  call void @llvm.lifetime.start.p0(i64 8, ptr %21) #9
  %28 = load i32, ptr %10, align 4, !tbaa !13
  %29 = load i32, ptr %16, align 4, !tbaa !13
  %30 = add i32 %28, %29
  %31 = zext i32 %30 to i64
  %32 = mul i64 %31, 4
  %33 = call ptr @opj_malloc(i64 noundef %32)
  store ptr %33, ptr %17, align 8, !tbaa !3
  %34 = load ptr, ptr %17, align 8, !tbaa !3
  %35 = icmp ne ptr %34, null
  br i1 %35, label %37, label %36

36:                                               ; preds = %5
  store i32 0, ptr %6, align 4
  store i32 1, ptr %22, align 4
  br label %138

37:                                               ; preds = %5
  %38 = load ptr, ptr %17, align 8, !tbaa !3
  %39 = load i32, ptr %10, align 4, !tbaa !13
  %40 = zext i32 %39 to i64
  %41 = getelementptr inbounds nuw i32, ptr %38, i64 %40
  store ptr %41, ptr %18, align 8, !tbaa !3
  store i64 0, ptr %13, align 8, !tbaa !8
  br label %42

42:                                               ; preds = %58, %37
  %43 = load i64, ptr %13, align 8, !tbaa !8
  %44 = load i32, ptr %16, align 4, !tbaa !13
  %45 = zext i32 %44 to i64
  %46 = icmp ult i64 %43, %45
  br i1 %46, label %47, label %61

47:                                               ; preds = %42
  %48 = load ptr, ptr %12, align 8, !tbaa !21
  %49 = getelementptr inbounds nuw float, ptr %48, i32 1
  store ptr %49, ptr %12, align 8, !tbaa !21
  %50 = load float, ptr %48, align 4, !tbaa !24
  %51 = load i32, ptr %20, align 4, !tbaa !13
  %52 = uitofp i32 %51 to float
  %53 = fmul float %50, %52
  %54 = fptosi float %53 to i32
  %55 = load ptr, ptr %18, align 8, !tbaa !3
  %56 = load i64, ptr %13, align 8, !tbaa !8
  %57 = getelementptr inbounds nuw i32, ptr %55, i64 %56
  store i32 %54, ptr %57, align 4, !tbaa !13
  br label %58

58:                                               ; preds = %47
  %59 = load i64, ptr %13, align 8, !tbaa !8
  %60 = add i64 %59, 1
  store i64 %60, ptr %13, align 8, !tbaa !8
  br label %42, !llvm.loop !36

61:                                               ; preds = %42
  store i64 0, ptr %13, align 8, !tbaa !8
  br label %62

62:                                               ; preds = %133, %61
  %63 = load i64, ptr %13, align 8, !tbaa !8
  %64 = load i64, ptr %8, align 8, !tbaa !8
  %65 = icmp ult i64 %63, %64
  br i1 %65, label %66, label %136

66:                                               ; preds = %62
  %67 = load ptr, ptr %18, align 8, !tbaa !3
  store ptr %67, ptr %21, align 8, !tbaa !3
  store i32 0, ptr %14, align 4, !tbaa !13
  br label %68

68:                                               ; preds = %83, %66
  %69 = load i32, ptr %14, align 4, !tbaa !13
  %70 = load i32, ptr %10, align 4, !tbaa !13
  %71 = icmp ult i32 %69, %70
  br i1 %71, label %72, label %86

72:                                               ; preds = %68
  %73 = load ptr, ptr %19, align 8, !tbaa !34
  %74 = load i32, ptr %14, align 4, !tbaa !13
  %75 = zext i32 %74 to i64
  %76 = getelementptr inbounds nuw ptr, ptr %73, i64 %75
  %77 = load ptr, ptr %76, align 8, !tbaa !3
  %78 = load i32, ptr %77, align 4, !tbaa !13
  %79 = load ptr, ptr %17, align 8, !tbaa !3
  %80 = load i32, ptr %14, align 4, !tbaa !13
  %81 = zext i32 %80 to i64
  %82 = getelementptr inbounds nuw i32, ptr %79, i64 %81
  store i32 %78, ptr %82, align 4, !tbaa !13
  br label %83

83:                                               ; preds = %72
  %84 = load i32, ptr %14, align 4, !tbaa !13
  %85 = add i32 %84, 1
  store i32 %85, ptr %14, align 4, !tbaa !13
  br label %68, !llvm.loop !37

86:                                               ; preds = %68
  store i32 0, ptr %14, align 4, !tbaa !13
  br label %87

87:                                               ; preds = %129, %86
  %88 = load i32, ptr %14, align 4, !tbaa !13
  %89 = load i32, ptr %10, align 4, !tbaa !13
  %90 = icmp ult i32 %88, %89
  br i1 %90, label %91, label %132

91:                                               ; preds = %87
  %92 = load ptr, ptr %19, align 8, !tbaa !34
  %93 = load i32, ptr %14, align 4, !tbaa !13
  %94 = zext i32 %93 to i64
  %95 = getelementptr inbounds nuw ptr, ptr %92, i64 %94
  %96 = load ptr, ptr %95, align 8, !tbaa !3
  store i32 0, ptr %96, align 4, !tbaa !13
  store i32 0, ptr %15, align 4, !tbaa !13
  br label %97

97:                                               ; preds = %119, %91
  %98 = load i32, ptr %15, align 4, !tbaa !13
  %99 = load i32, ptr %10, align 4, !tbaa !13
  %100 = icmp ult i32 %98, %99
  br i1 %100, label %101, label %122

101:                                              ; preds = %97
  %102 = load ptr, ptr %21, align 8, !tbaa !3
  %103 = load i32, ptr %102, align 4, !tbaa !13
  %104 = load ptr, ptr %17, align 8, !tbaa !3
  %105 = load i32, ptr %15, align 4, !tbaa !13
  %106 = zext i32 %105 to i64
  %107 = getelementptr inbounds nuw i32, ptr %104, i64 %106
  %108 = load i32, ptr %107, align 4, !tbaa !13
  %109 = call i32 @opj_int_fix_mul(i32 noundef %103, i32 noundef %108)
  %110 = load ptr, ptr %19, align 8, !tbaa !34
  %111 = load i32, ptr %14, align 4, !tbaa !13
  %112 = zext i32 %111 to i64
  %113 = getelementptr inbounds nuw ptr, ptr %110, i64 %112
  %114 = load ptr, ptr %113, align 8, !tbaa !3
  %115 = load i32, ptr %114, align 4, !tbaa !13
  %116 = add nsw i32 %115, %109
  store i32 %116, ptr %114, align 4, !tbaa !13
  %117 = load ptr, ptr %21, align 8, !tbaa !3
  %118 = getelementptr inbounds nuw i32, ptr %117, i32 1
  store ptr %118, ptr %21, align 8, !tbaa !3
  br label %119

119:                                              ; preds = %101
  %120 = load i32, ptr %15, align 4, !tbaa !13
  %121 = add i32 %120, 1
  store i32 %121, ptr %15, align 4, !tbaa !13
  br label %97, !llvm.loop !38

122:                                              ; preds = %97
  %123 = load ptr, ptr %19, align 8, !tbaa !34
  %124 = load i32, ptr %14, align 4, !tbaa !13
  %125 = zext i32 %124 to i64
  %126 = getelementptr inbounds nuw ptr, ptr %123, i64 %125
  %127 = load ptr, ptr %126, align 8, !tbaa !3
  %128 = getelementptr inbounds nuw i32, ptr %127, i32 1
  store ptr %128, ptr %126, align 8, !tbaa !3
  br label %129

129:                                              ; preds = %122
  %130 = load i32, ptr %14, align 4, !tbaa !13
  %131 = add i32 %130, 1
  store i32 %131, ptr %14, align 4, !tbaa !13
  br label %87, !llvm.loop !39

132:                                              ; preds = %87
  br label %133

133:                                              ; preds = %132
  %134 = load i64, ptr %13, align 8, !tbaa !8
  %135 = add i64 %134, 1
  store i64 %135, ptr %13, align 8, !tbaa !8
  br label %62, !llvm.loop !40

136:                                              ; preds = %62
  %137 = load ptr, ptr %17, align 8, !tbaa !3
  call void @opj_free(ptr noundef %137)
  store i32 1, ptr %6, align 4
  store i32 1, ptr %22, align 4
  br label %138

138:                                              ; preds = %136, %36
  call void @llvm.lifetime.end.p0(i64 8, ptr %21) #9
  call void @llvm.lifetime.end.p0(i64 4, ptr %20) #9
  call void @llvm.lifetime.end.p0(i64 8, ptr %19) #9
  call void @llvm.lifetime.end.p0(i64 8, ptr %18) #9
  call void @llvm.lifetime.end.p0(i64 8, ptr %17) #9
  call void @llvm.lifetime.end.p0(i64 4, ptr %16) #9
  call void @llvm.lifetime.end.p0(i64 4, ptr %15) #9
  call void @llvm.lifetime.end.p0(i64 4, ptr %14) #9
  call void @llvm.lifetime.end.p0(i64 8, ptr %13) #9
  call void @llvm.lifetime.end.p0(i64 8, ptr %12) #9
  %139 = load i32, ptr %6, align 4
  ret i32 %139
}