; Function Attrs: nounwind uwtable
define hidden range(i32 0, 2) i32 @opj_mct_encode_custom(ptr noundef readonly captures(none) %0, i64 noundef %1, ptr noundef captures(none) %2, i32 noundef %3, i32 noundef %4) local_unnamed_addr #3 {
  %6 = mul i32 %3, %3
  %7 = add i32 %6, %3
  %8 = zext i32 %7 to i64
  %9 = shl nuw nsw i64 %8, 2
  %10 = tail call ptr @opj_malloc(i64 noundef %9) #7
  %.not = icmp eq ptr %10, null
  br i1 %.not, label %43, label %11

11:                                               ; preds = %5
  %12 = zext i32 %3 to i64
  %13 = getelementptr inbounds nuw i32, ptr %10, i64 %12
  %14 = zext i32 %6 to i64
  %.not72 = icmp eq i32 %6, 0
  br i1 %.not72, label %.preheader54, label %.lr.ph

.preheader54:                                     ; preds = %.lr.ph, %11
  %.not73 = icmp eq i64 %1, 0
  %.not74 = icmp eq i32 %3, 0
  %or.cond = or i1 %.not73, %.not74
  br i1 %or.cond, label %._crit_edge65, label %.lr.ph58.us.preheader

.lr.ph58.us.preheader:                            ; preds = %.preheader54, %._crit_edge.us
  %.14764.us = phi i64 [ %36, %._crit_edge.us ], [ 0, %.preheader54 ]
  br label %.lr.ph58.us

.preheader.us:                                    ; preds = %.lr.ph58.us, %17
  %indvars.iv84 = phi i64 [ %indvars.iv.next85, %17 ], [ 0, %.lr.ph58.us ]
  %.062.us = phi ptr [ %31, %17 ], [ %13, %.lr.ph58.us ]
  %15 = getelementptr inbounds nuw ptr, ptr %2, i64 %indvars.iv84
  %16 = load ptr, ptr %15, align 8, !tbaa !21
  store i32 0, ptr %16, align 4, !tbaa !8
  br label %19

17:                                               ; preds = %19
  %18 = getelementptr inbounds nuw i8, ptr %16, i64 4
  store ptr %18, ptr %15, align 8, !tbaa !21
  %indvars.iv.next85 = add nuw nsw i64 %indvars.iv84, 1
  %exitcond88.not = icmp eq i64 %indvars.iv.next85, %12
  br i1 %exitcond88.not, label %._crit_edge.us, label %.preheader.us, !llvm.loop !24

19:                                               ; preds = %19, %.preheader.us
  %indvars.iv79 = phi i64 [ %indvars.iv.next80, %19 ], [ 0, %.preheader.us ]
  %.160.us = phi ptr [ %31, %19 ], [ %.062.us, %.preheader.us ]
  %20 = phi i32 [ %30, %19 ], [ 0, %.preheader.us ]
  %21 = load i32, ptr %.160.us, align 4, !tbaa !8
  %22 = getelementptr inbounds nuw i32, ptr %10, i64 %indvars.iv79
  %23 = load i32, ptr %22, align 4, !tbaa !8
  %24 = sext i32 %21 to i64
  %25 = sext i32 %23 to i64
  %26 = mul nsw i64 %25, %24
  %27 = add nsw i64 %26, 4096
  %28 = lshr i64 %27, 13
  %29 = trunc i64 %28 to i32
  %30 = add nsw i32 %20, %29
  store i32 %30, ptr %16, align 4, !tbaa !8
  %31 = getelementptr inbounds nuw i8, ptr %.160.us, i64 4
  %indvars.iv.next80 = add nuw nsw i64 %indvars.iv79, 1
  %exitcond83.not = icmp eq i64 %indvars.iv.next80, %12
  br i1 %exitcond83.not, label %17, label %19, !llvm.loop !25

.lr.ph58.us:                                      ; preds = %.lr.ph58.us.preheader, %.lr.ph58.us
  %indvars.iv = phi i64 [ 0, %.lr.ph58.us.preheader ], [ %indvars.iv.next, %.lr.ph58.us ]
  %32 = getelementptr inbounds nuw ptr, ptr %2, i64 %indvars.iv
  %33 = load ptr, ptr %32, align 8, !tbaa !21
  %34 = load i32, ptr %33, align 4, !tbaa !8
  %35 = getelementptr inbounds nuw i32, ptr %10, i64 %indvars.iv
  store i32 %34, ptr %35, align 4, !tbaa !8
  %indvars.iv.next = add nuw nsw i64 %indvars.iv, 1
  %exitcond78.not = icmp eq i64 %indvars.iv.next, %12
  br i1 %exitcond78.not, label %.preheader.us, label %.lr.ph58.us, !llvm.loop !26

._crit_edge.us:                                   ; preds = %17
  %36 = add nuw i64 %.14764.us, 1
  %exitcond89.not = icmp eq i64 %36, %1
  br i1 %exitcond89.not, label %._crit_edge65, label %.lr.ph58.us.preheader, !llvm.loop !27

.lr.ph:                                           ; preds = %11, %.lr.ph
  %.04556 = phi ptr [ %37, %.lr.ph ], [ %0, %11 ]
  %.04655 = phi i64 [ %42, %.lr.ph ], [ 0, %11 ]
  %37 = getelementptr inbounds nuw i8, ptr %.04556, i64 4
  %38 = load float, ptr %.04556, align 4, !tbaa !16
  %39 = fmul float %38, 8.192000e+03
  %40 = fptosi float %39 to i32
  %41 = getelementptr inbounds nuw i32, ptr %13, i64 %.04655
  store i32 %40, ptr %41, align 4, !tbaa !8
  %42 = add nuw nsw i64 %.04655, 1
  %exitcond.not = icmp eq i64 %42, %14
  br i1 %exitcond.not, label %.preheader54, label %.lr.ph, !llvm.loop !28

._crit_edge65:                                    ; preds = %._crit_edge.us, %.preheader54
  tail call void @opj_free(ptr noundef nonnull %10) #7
  br label %43

43:                                               ; preds = %5, %._crit_edge65
  %.044 = phi i32 [ 1, %._crit_edge65 ], [ 0, %5 ]
  ret i32 %.044
}